; Function Attrs: mustprogress nofree norecurse nosync nounwind willreturn memory(read, inaccessiblemem: none) uwtable
define dso_local noundef i32 @_ZNK4llvm15PatchPointOpers17getNextScratchIdxEj(ptr nocapture noundef nonnull readonly align 8 dereferenceable(9) %0, i32 noundef %1) local_unnamed_addr #4 align 2 {
  %.not = icmp eq i32 %1, 0
  %.pre = load ptr, ptr %0, align 8
  br i1 %.not, label %3, label %16

3:                                                ; preds = %2
  %4 = getelementptr inbounds nuw i8, ptr %0, i64 8
  %5 = load i8, ptr %4, align 8
  %6 = and i8 %5, 1
  %narrow.i = add nuw nsw i8 %6, 5
  %7 = zext nneg i8 %narrow.i to i32
  %8 = getelementptr inbounds nuw i8, ptr %.pre, i64 32
  %9 = load ptr, ptr %8, align 8
  %10 = zext nneg i8 %6 to i64
  %11 = getelementptr inbounds %"class.llvm::MachineOperand", ptr %9, i64 %10
  %12 = getelementptr inbounds i8, ptr %11, i64 112
  %13 = load i64, ptr %12, align 8
  %14 = trunc i64 %13 to i32
  %15 = add i32 %14, %7
  br label %16

16:                                               ; preds = %3, %2
  %.0 = phi i32 [ %1, %2 ], [ %15, %3 ]
  %17 = getelementptr inbounds nuw i8, ptr %.pre, i64 40
  %18 = load i24, ptr %17, align 8
  %19 = zext i24 %18 to i32
  %20 = icmp ult i32 %.0, %19
  br i1 %20, label %.lr.ph, label %.critedge

.lr.ph:                                           ; preds = %16
  %21 = getelementptr inbounds nuw i8, ptr %.pre, i64 32
  %22 = load ptr, ptr %21, align 8
  %23 = zext nneg i32 %.0 to i64
  br label %24

24:                                               ; preds = %.lr.ph, %.critedge13
  %indvars.iv = phi i64 [ %23, %.lr.ph ], [ %indvars.iv.next, %.critedge13 ]
  %25 = getelementptr inbounds %"class.llvm::MachineOperand", ptr %22, i64 %indvars.iv
  %26 = load i32, ptr %25, align 8
  %27 = and i32 %26, 1124073727
  %or.cond.not = icmp eq i32 %27, 1124073472
  br i1 %or.cond.not, label %.critedge.loopexit.split.loop.exit, label %.critedge13

.critedge13:                                      ; preds = %24
  %indvars.iv.next = add nuw nsw i64 %indvars.iv, 1
  %lftr.wideiv = trunc i64 %indvars.iv.next to i32
  %exitcond.not = icmp eq i32 %lftr.wideiv, %19
  br i1 %exitcond.not, label %.critedge, label %24, !llvm.loop !4

.critedge.loopexit.split.loop.exit:               ; preds = %24
  %28 = trunc nuw i64 %indvars.iv to i32
  br label %.critedge

.critedge:                                        ; preds = %.critedge13, %.critedge.loopexit.split.loop.exit, %16
  %.010.lcssa = phi i32 [ %.0, %16 ], [ %28, %.critedge.loopexit.split.loop.exit ], [ %19, %.critedge13 ]
  ret i32 %.010.lcssa
}